target datalayout = "e-m:e-p270:32:32-p271:32:32-p272:64:64-i64:64-i128:128-f80:128-n8:16:32:64-S128"
target triple = "x86_64-pc-linux-gnu"

%struct._zend_executor_globals = type { %struct._zval_struct, %struct._zval_struct, [32 x ptr], ptr, ptr, %struct._zend_array, %struct._zend_array, ptr, i32, i32, ptr, ptr, ptr, ptr, ptr, ptr, i64, ptr, ptr, i32, i32, i64, i32, i32, i32, i8, i8, %struct.zend_atomic_bool_s, %struct.zend_atomic_bool_s, ptr, i64, ptr, ptr, %struct._zend_array, %struct._zend_array, i32, i8, %struct._zval_struct, %struct._zval_struct, %struct._zend_stack, %struct._zend_stack, %struct._zend_stack, ptr, i32, i32, i64, ptr, ptr, ptr, %struct._zend_objects_store, ptr, ptr, ptr, [3 x %struct._zend_op], ptr, i8, i8, i64, i32, i32, ptr, [16 x %struct._HashTableIterator], ptr, %union._zend_function, %struct._zend_op, %struct._zend_array, i64, %struct.zend_get_gc_buffer, ptr, ptr, ptr, i64, i8, i32, ptr, ptr, i64, %struct._zend_call_stack, i64, i64, [6 x ptr] }
%struct.zend_atomic_bool_s = type { i8 }
%struct._zval_struct = type { %union._zend_value, %union.anon, %union.anon.2 }
%union._zend_value = type { i64 }
%union.anon = type { i32 }
%union.anon.2 = type { i32 }
%struct._zend_stack = type { i32, i32, i32, ptr }
%struct._zend_objects_store = type { ptr, i32, i32, i32 }
%struct._HashTableIterator = type { ptr, i32, i32 }
%union._zend_function = type { %struct._zend_op_array }
%struct._zend_op_array = type { i8, [3 x i8], i32, ptr, ptr, ptr, i32, i32, ptr, ptr, ptr, ptr, i32, i32, i32, i32, ptr, ptr, ptr, ptr, ptr, i32, i32, ptr, ptr, ptr, i32, i32, i32, i32, ptr, ptr, [6 x ptr] }
%struct._zend_op = type { ptr, %union._znode_op, %union._znode_op, %union._znode_op, i32, i32, i8, i8, i8, i8 }
%union._znode_op = type { i32 }
%struct._zend_array = type { %struct._zend_refcounted_h, %union.anon.4, i32, %union.anon.6, i32, i32, i32, i32, i64, ptr }
%struct._zend_refcounted_h = type { i32, %union.anon.3 }
%union.anon.3 = type { i32 }
%union.anon.4 = type { i32 }
%union.anon.6 = type { ptr }
%struct.zend_get_gc_buffer = type { ptr, ptr, ptr }
%struct._zend_call_stack = type { ptr, i64 }
%struct._zend_ini_entry = type { ptr, ptr, ptr, ptr, ptr, ptr, ptr, ptr, i32, i8, i8, i8 }

@executor_globals = external global %struct._zend_executor_globals, align 8

; Function Attrs: nounwind uwtable
define i32 @zend_restore_ini_entry(ptr noundef %0, i32 noundef %1) #0 {
  %3 = alloca ptr, align 8
  %4 = alloca ptr, align 8
  %5 = alloca ptr, align 8
  %6 = alloca ptr, align 8
  %7 = alloca i32, align 4
  %8 = alloca ptr, align 8
  %9 = alloca i32, align 4
  %10 = alloca ptr, align 8
  store ptr %0, ptr %8, align 8
  store i32 %1, ptr %9, align 4
  %11 = load ptr, ptr getelementptr inbounds (%struct._zend_executor_globals, ptr @executor_globals, i32 0, i32 46), align 8
  %12 = load ptr, ptr %8, align 8
  store ptr %11, ptr %4, align 8
  store ptr %12, ptr %5, align 8
  %13 = load ptr, ptr %4, align 8
  %14 = load ptr, ptr %5, align 8
  %15 = call ptr @zend_hash_find(ptr noundef %13, ptr noundef %14) #13
  store ptr %15, ptr %6, align 8
  %16 = load ptr, ptr %6, align 8
  %17 = icmp ne ptr %16, null
  br i1 %17, label %18, label %24

18:                                               ; preds = %2
  %19 = load ptr, ptr %6, align 8
  %20 = load ptr, ptr %19, align 8
  %21 = icmp ne ptr %20, null
  call void @llvm.assume(i1 %21)
  %22 = load ptr, ptr %6, align 8
  %23 = load ptr, ptr %22, align 8
  store ptr %23, ptr %3, align 8
  br label %25

24:                                               ; preds = %2
  store ptr null, ptr %3, align 8
  br label %25

25:                                               ; preds = %24, %18
  %26 = load ptr, ptr %3, align 8
  store ptr %26, ptr %10, align 8
  %27 = icmp eq ptr %26, null
  br i1 %27, label %38, label %28

28:                                               ; preds = %25
  %29 = load i32, ptr %9, align 4
  %30 = icmp eq i32 %29, 16
  br i1 %30, label %31, label %39

31:                                               ; preds = %28
  %32 = load ptr, ptr %10, align 8
  %33 = getelementptr inbounds %struct._zend_ini_entry, ptr %32, i32 0, i32 9
  %34 = load i8, ptr %33, align 4
  %35 = zext i8 %34 to i32
  %36 = and i32 %35, 1
  %37 = icmp eq i32 %36, 0
  br i1 %37, label %38, label %39

38:                                               ; preds = %31, %25
  store i32 -1, ptr %7, align 4
  br label %54

39:                                               ; preds = %31, %28
  %40 = load ptr, ptr getelementptr inbounds (%struct._zend_executor_globals, ptr @executor_globals, i32 0, i32 47), align 8
  %41 = icmp ne ptr %40, null
  br i1 %41, label %42, label %53

42:                                               ; preds = %39
  %43 = load ptr, ptr %10, align 8
  %44 = load i32, ptr %9, align 4
  %45 = call i32 @zend_restore_ini_entry_cb(ptr noundef %43, i32 noundef %44)
  %46 = icmp eq i32 %45, 0
  br i1 %46, label %47, label %51

47:                                               ; preds = %42
  %48 = load ptr, ptr getelementptr inbounds (%struct._zend_executor_globals, ptr @executor_globals, i32 0, i32 47), align 8
  %49 = load ptr, ptr %8, align 8
  %50 = call i32 @zend_hash_del(ptr noundef %48, ptr noundef %49)
  br label %52

51:                                               ; preds = %42
  store i32 -1, ptr %7, align 4
  br label %54

52:                                               ; preds = %47
  br label %53

53:                                               ; preds = %52, %39
  store i32 0, ptr %7, align 4
  br label %54

54:                                               ; preds = %53, %51, %38
  %55 = load i32, ptr %7, align 4
  ret i32 %55
}