; Function Attrs: nounwind uwtable
define noundef i32 @zend_restore_ini_entry(ptr noundef %0, i32 noundef %1) local_unnamed_addr #0 {
  %3 = load ptr, ptr getelementptr inbounds (%struct._zend_executor_globals, ptr @executor_globals, i64 0, i32 46), align 8
  %4 = tail call ptr @zend_hash_find(ptr noundef %3, ptr noundef %0) #20
  %.not = icmp eq ptr %4, null
  br i1 %.not, label %.thread, label %5

5:                                                ; preds = %2
  %6 = load ptr, ptr %4, align 8, !nonnull !5, !noundef !5
  %7 = icmp eq i32 %1, 16
  br i1 %7, label %8, label %13

8:                                                ; preds = %5
  %9 = getelementptr inbounds i8, ptr %6, i64 68
  %10 = load i8, ptr %9, align 4
  %11 = and i8 %10, 1
  %12 = icmp eq i8 %11, 0
  br i1 %12, label %.thread, label %13

13:                                               ; preds = %8, %5
  %14 = load ptr, ptr getelementptr inbounds (%struct._zend_executor_globals, ptr @executor_globals, i64 0, i32 47), align 8
  %.not14 = icmp eq ptr %14, null
  br i1 %.not14, label %.thread, label %15

15:                                               ; preds = %13
  %16 = tail call fastcc i32 @zend_restore_ini_entry_cb(ptr noundef nonnull %6, i32 noundef %1), !range !4
  %17 = icmp eq i32 %16, 0
  br i1 %17, label %18, label %.thread

18:                                               ; preds = %15
  %19 = load ptr, ptr getelementptr inbounds (%struct._zend_executor_globals, ptr @executor_globals, i64 0, i32 47), align 8
  %20 = tail call i32 @zend_hash_del(ptr noundef %19, ptr noundef %0) #20
  br label %.thread

.thread:                                          ; preds = %2, %13, %18, %15, %8
  %.012 = phi i32 [ -1, %8 ], [ -1, %15 ], [ 0, %18 ], [ 0, %13 ], [ -1, %2 ]
  ret i32 %.012
}